Certificate:
    Data:
        Version: 3 (0x2)
        Serial Number: 1 (0x1)
    Signature Algorithm: sha256WithRSAEncryption
        Issuer: C=AU, ST=Some-State, O=Internet Widgits Pty Ltd, CN=CA/emailAddress=ca@lab.ser
        Validity
            Not Before: Feb 25 14:15:40 2020 GMT
            Not After : Feb 24 14:15:40 2021 GMT
        Subject: C=AU, ST=Some-State, O=Internet Widgits Pty Ltd, CN=user1/emailAddress=user1@lab.ser
        Subject Public Key Info:
            Public Key Algorithm: rsaEncryption
                Public-Key: (2048 bit)
                Modulus:
                    00:cd:de:ed:32:3a:57:c6:66:88:2a:e5:30:71:1f:
                    dd:d5:ce:95:06:34:fb:ac:24:4f:b5:24:11:60:f3:
                    85:d9:3e:67:c5:7d:27:c3:ce:da:f7:66:20:9d:04:
                    a8:6f:98:26:a0:ec:df:fd:67:80:e9:5f:9c:27:e7:
                    db:60:5f:ff:2e:81:78:6c:53:35:89:f2:91:ab:ab:
                    c5:68:45:b3:c8:3e:4e:b0:64:da:bf:f1:0b:fb:9c:
                    af:40:4e:5c:cd:4a:09:f8:1c:2a:b3:0e:89:93:23:
                    2c:d7:60:21:aa:25:e5:e0:61:d7:8b:d5:a4:6a:b0:
                    55:c1:88:ea:3f:12:b1:67:ed:4c:07:76:56:e2:64:
                    3f:d1:e6:25:c6:09:01:b2:e3:29:82:75:8f:48:af:
                    fc:ee:a9:af:49:2d:4a:58:10:7f:0a:72:87:0c:04:
                    37:cf:50:12:e3:63:a3:d3:ce:f0:10:a3:fa:46:0e:
                    d9:c2:65:ea:f1:1e:18:f1:a1:71:a7:21:f6:e0:9f:
                    9b:4d:f2:d6:af:53:5b:05:92:a4:a8:70:b3:22:ab:
                    8b:53:86:f5:21:60:81:8d:9d:da:c4:f9:97:8b:30:
                    5a:9e:96:43:37:f3:ab:50:8c:c6:ea:bd:ad:15:19:
                    cb:dd:c0:bb:0d:ca:2d:2b:11:3c:6f:4a:87:16:d6:
                    62:33
                Exponent: 65537 (0x10001)
        X509v3 extensions:
            X509v3 Basic Constraints: 
                CA:FALSE
            Netscape Comment: 
                OpenSSL Generated Certificate
            X509v3 Subject Key Identifier: 
                F5:EB:35:6A:37:2D:2A:1F:A5:DA:B3:BA:9E:FD:59:21:36:CA:70:77
            X509v3 Authority Key Identifier: 
                keyid:62:2C:C5:A1:A5:A4:F5:A2:9B:4F:BF:FD:CB:38:45:C7:D1:EB:79:12

    Signature Algorithm: sha256WithRSAEncryption
         6b:8a:53:e6:2e:1a:10:40:df:0c:00:f8:5c:b3:72:dd:2a:c0:
         87:40:ee:40:2f:6d:04:c4:17:bb:95:b5:c8:74:8e:48:33:ba:
         e1:c7:24:89:b0:06:c6:d4:4b:19:49:cd:57:4f:a8:9e:a4:1e:
         36:a2:b8:65:99:5f:47:a8:13:4e:1c:7f:72:4d:61:33:7b:c8:
         9b:9c:6b:d0:45:7a:94:19:ba:ce:11:a8:e3:c8:35:3f:db:a3:
         4f:4c:4e:40:5d:fa:1e:44:2f:76:44:00:81:59:d0:77:d0:2d:
         7a:a7:e5:95:13:b7:dc:51:36:35:d5:e3:30:8a:55:cf:b1:b5:
         86:8a:df:ef:54:0a:9e:de:14:3a:73:6e:98:70:8e:00:1d:8e:
         91:96:c4:3a:32:40:7e:07:c4:24:2c:3d:37:46:69:2c:b6:ad:
         5c:ef:43:e7:01:a3:9a:d2:ff:0b:aa:ad:25:4f:00:34:c5:82:
         d4:bc:f7:bb:13:39:dd:54:3c:66:7e:10:7c:5e:fa:41:bf:41:
         96:e4:a1:05:58:0b:4c:97:0b:cf:df:52:a2:b3:73:3f:7c:a5:
         fe:ce:c5:08:a4:58:e8:74:a6:5a:aa:8d:dc:66:1f:8d:f8:13:
         d0:66:87:62:5c:15:e2:45:3d:28:1b:b6:5a:52:d9:5f:be:0e:
         0b:96:09:9b
-----BEGIN CERTIFICATE-----
MIID1jCCAr6gAwIBAgIBATANBgkqhkiG9w0BAQsFADBtMQswCQYDVQQGEwJBVTET
MBEGA1UECAwKU29tZS1TdGF0ZTEhMB8GA1UECgwYSW50ZXJuZXQgV2lkZ2l0cyBQ
dHkgTHRkMQswCQYDVQQDDAJDQTEZMBcGCSqGSIb3DQEJARYKY2FAbGFiLnNlcjAe
Fw0yMDAyMjUxNDE1NDBaFw0yMTAyMjQxNDE1NDBaMHMxCzAJBgNVBAYTAkFVMRMw
EQYDVQQIDApTb21lLVN0YXRlMSEwHwYDVQQKDBhJbnRlcm5ldCBXaWRnaXRzIFB0
eSBMdGQxDjAMBgNVBAMMBXVzZXIxMRwwGgYJKoZIhvcNAQkBFg11c2VyMUBsYWIu
c2VyMIIBIjANBgkqhkiG9w0BAQEFAAOCAQ8AMIIBCgKCAQEAzd7tMjpXxmaIKuUw
cR/d1c6VBjT7rCRPtSQRYPOF2T5nxX0nw87a92YgnQSob5gmoOzf/WeA6V+cJ+fb
YF//LoF4bFM1ifKRq6vFaEWzyD5OsGTav/EL+5yvQE5czUoJ+Bwqsw6JkyMs12Ah
qiXl4GHXi9WkarBVwYjqPxKxZ+1MB3ZW4mQ/0eYlxgkBsuMpgnWPSK/87qmvSS1K
WBB/CnKHDAQ3z1AS42Oj087wEKP6Rg7ZwmXq8R4Y8aFxpyH24J+bTfLWr1NbBZKk
qHCzIquLU4b1IWCBjZ3axPmXizBanpZDN/OrUIzG6r2tFRnL3cC7DcotKxE8b0qH
FtZiMwIDAQABo3sweTAJBgNVHRMEAjAAMCwGCWCGSAGG+EIBDQQfFh1PcGVuU1NM
IEdlbmVyYXRlZCBDZXJ0aWZpY2F0ZTAdBgNVHQ4EFgQU9es1ajctKh+l2rO6nv1Z
ITbKcHcwHwYDVR0jBBgwFoAUYizFoaWk9aKbT7/9yzhFx9HreRIwDQYJKoZIhvcN
AQELBQADggEBAGuKU+YuGhBA3wwA+Fyzct0qwIdA7kAvbQTEF7uVtch0jkgzuuHH
JImwBsbUSxlJzVdPqJ6kHjaiuGWZX0eoE04cf3JNYTN7yJuca9BFepQZus4RqOPI
NT/bo09MTkBd+h5EL3ZEAIFZ0HfQLXqn5ZUTt9xRNjXV4zCKVc+xtYaK3+9UCp7e
FDpzbphwjgAdjpGWxDoyQH4HxCQsPTdGaSy2rVzvQ+cBo5rS/wuqrSVPADTFgtS8
97sTOd1UPGZ+EHxe+kG/QZbkoQVYC0yXC8/fUqKzcz98pf7OxQikWOh0plqqjdxm
H434E9Bmh2JcFeJFPSgbtlpS2V++DguWCZs=
-----END CERTIFICATE-----
