Certificate:
    Data:
        Version: 3 (0x2)
        Serial Number: 2 (0x2)
    Signature Algorithm: sha256WithRSAEncryption
        Issuer: C=AU, ST=Some-State, O=Internet Widgits Pty Ltd, CN=CA/emailAddress=ca@lab.ser
        Validity
            Not Before: Feb 25 14:17:29 2020 GMT
            Not After : Feb 24 14:17:29 2021 GMT
        Subject: C=AU, ST=Some-State, O=Internet Widgits Pty Ltd, CN=user2/emailAddress=user2@lab.ser
        Subject Public Key Info:
            Public Key Algorithm: rsaEncryption
                Public-Key: (2048 bit)
                Modulus:
                    00:bd:5b:f7:72:f9:9e:29:f3:48:d2:4e:77:4b:70:
                    af:33:dd:a5:ed:78:59:c3:ab:b4:5e:27:66:3b:34:
                    6c:4e:b8:ae:74:08:67:27:de:bc:b2:aa:c9:c1:c2:
                    d1:6e:f8:4f:5a:bd:a2:19:91:43:b5:fd:73:b8:20:
                    dd:75:20:43:14:38:b6:e3:3c:43:2d:c0:0d:b6:32:
                    63:a8:49:69:51:2c:1d:75:a9:a9:01:ab:8d:1d:c1:
                    ab:33:25:03:c2:4a:7d:c6:55:61:8b:57:ba:83:5b:
                    95:09:cb:2f:a0:97:02:3a:0b:2a:76:b6:0e:4d:ef:
                    26:4b:b7:a2:e1:55:fb:26:32:b7:73:0f:da:b1:56:
                    31:fd:2e:7c:57:38:57:62:8c:7a:93:67:5e:d1:c3:
                    76:11:bd:93:87:91:c1:ce:a6:97:08:cb:07:3e:20:
                    87:fe:18:38:cc:93:d5:cc:96:22:31:df:18:37:09:
                    f5:56:a2:2d:6c:ac:b7:b7:ae:3d:57:b5:de:8c:84:
                    f4:ce:ce:3a:53:9f:75:16:5f:a7:a5:4d:e2:42:2c:
                    3f:d7:90:42:40:cc:e7:bb:b9:a5:7e:db:10:0c:a5:
                    01:cc:5b:5c:13:be:28:dd:e3:b7:a3:ba:31:cb:63:
                    a1:8b:97:4f:f6:77:c2:d1:59:e8:5a:9e:62:79:90:
                    bb:15
                Exponent: 65537 (0x10001)
        X509v3 extensions:
            X509v3 Basic Constraints: 
                CA:FALSE
            Netscape Comment: 
                OpenSSL Generated Certificate
            X509v3 Subject Key Identifier: 
                AA:B0:4D:34:55:7E:4B:1B:89:4D:F4:36:A1:35:DF:60:61:9C:CC:18
            X509v3 Authority Key Identifier: 
                keyid:62:2C:C5:A1:A5:A4:F5:A2:9B:4F:BF:FD:CB:38:45:C7:D1:EB:79:12

    Signature Algorithm: sha256WithRSAEncryption
         2d:6f:b4:d9:f0:4b:3d:6d:07:e4:6d:a5:df:b8:5b:05:09:34:
         4a:52:75:64:ab:70:3f:45:90:28:b8:13:90:74:2f:c3:36:25:
         4f:ed:2e:43:81:a8:f2:9d:c1:9f:6f:fd:38:77:c1:67:b0:90:
         31:78:cd:1b:9d:9d:78:90:3a:f4:7d:03:45:7a:21:66:5a:12:
         4a:ed:1d:e9:a1:2e:3a:4f:ed:84:54:28:01:91:00:b8:1c:9d:
         ec:92:f6:94:be:02:05:f1:b2:1f:d0:ea:d8:f1:d7:71:f4:43:
         47:e9:ef:5f:8b:56:04:da:8f:6f:61:59:b6:13:59:d0:cd:c4:
         d8:30:d2:bb:61:0e:8c:ae:da:e3:23:b4:5a:be:c2:bf:43:79:
         c3:92:5b:80:0c:8f:34:69:61:83:7b:0e:08:9d:91:85:91:75:
         f7:d9:5e:2e:87:36:0b:88:9a:32:61:ae:64:2c:45:42:b0:2c:
         6c:07:2e:bc:e6:8a:c9:74:dc:19:ce:0f:df:12:08:0f:a4:65:
         81:82:2d:eb:44:0c:39:8b:e9:54:66:d0:80:41:4f:3f:d0:2f:
         16:2a:6a:da:e9:30:94:67:c1:78:81:bd:6b:e0:12:c4:ce:e7:
         0a:4c:ad:dc:c0:49:f1:1b:3d:e5:df:6e:7b:c4:e0:ca:72:b2:
         47:48:65:53
-----BEGIN CERTIFICATE-----
MIID1jCCAr6gAwIBAgIBAjANBgkqhkiG9w0BAQsFADBtMQswCQYDVQQGEwJBVTET
MBEGA1UECAwKU29tZS1TdGF0ZTEhMB8GA1UECgwYSW50ZXJuZXQgV2lkZ2l0cyBQ
dHkgTHRkMQswCQYDVQQDDAJDQTEZMBcGCSqGSIb3DQEJARYKY2FAbGFiLnNlcjAe
Fw0yMDAyMjUxNDE3MjlaFw0yMTAyMjQxNDE3MjlaMHMxCzAJBgNVBAYTAkFVMRMw
EQYDVQQIDApTb21lLVN0YXRlMSEwHwYDVQQKDBhJbnRlcm5ldCBXaWRnaXRzIFB0
eSBMdGQxDjAMBgNVBAMMBXVzZXIyMRwwGgYJKoZIhvcNAQkBFg11c2VyMkBsYWIu
c2VyMIIBIjANBgkqhkiG9w0BAQEFAAOCAQ8AMIIBCgKCAQEAvVv3cvmeKfNI0k53
S3CvM92l7XhZw6u0XidmOzRsTriudAhnJ968sqrJwcLRbvhPWr2iGZFDtf1zuCDd
dSBDFDi24zxDLcANtjJjqElpUSwddampAauNHcGrMyUDwkp9xlVhi1e6g1uVCcsv
oJcCOgsqdrYOTe8mS7ei4VX7JjK3cw/asVYx/S58VzhXYox6k2de0cN2Eb2Th5HB
zqaXCMsHPiCH/hg4zJPVzJYiMd8YNwn1VqItbKy3t649V7XejIT0zs46U591Fl+n
pU3iQiw/15BCQMznu7mlftsQDKUBzFtcE74o3eO3o7oxy2Ohi5dP9nfC0VnoWp5i
eZC7FQIDAQABo3sweTAJBgNVHRMEAjAAMCwGCWCGSAGG+EIBDQQfFh1PcGVuU1NM
IEdlbmVyYXRlZCBDZXJ0aWZpY2F0ZTAdBgNVHQ4EFgQUqrBNNFV+SxuJTfQ2oTXf
YGGczBgwHwYDVR0jBBgwFoAUYizFoaWk9aKbT7/9yzhFx9HreRIwDQYJKoZIhvcN
AQELBQADggEBAC1vtNnwSz1tB+Rtpd+4WwUJNEpSdWSrcD9FkCi4E5B0L8M2JU/t
LkOBqPKdwZ9v/Th3wWewkDF4zRudnXiQOvR9A0V6IWZaEkrtHemhLjpP7YRUKAGR
ALgcneyS9pS+AgXxsh/Q6tjx13H0Q0fp71+LVgTaj29hWbYTWdDNxNgw0rthDoyu
2uMjtFq+wr9DecOSW4AMjzRpYYN7DgidkYWRdffZXi6HNguImjJhrmQsRUKwLGwH
Lrzmisl03BnOD98SCA+kZYGCLetEDDmL6VRm0IBBTz/QLxYqatrpMJRnwXiBvWvg
EsTO5wpMrdzASfEbPeXfbnvE4MpyskdIZVM=
-----END CERTIFICATE-----
